; Function Attrs: mustprogress nounwind uwtable
define dso_local void @_Z29cmFortran_yy_switch_to_bufferP15yy_buffer_statePv(ptr noundef %0, ptr noundef captures(none) %1) local_unnamed_addr #1 {
  %3 = getelementptr inbounds nuw i8, ptr %1, i64 40
  %4 = load ptr, ptr %3, align 8, !tbaa !20
  %.not.i = icmp eq ptr %4, null
  br i1 %.not.i, label %5, label %11

5:                                                ; preds = %2
  %6 = tail call noalias noundef dereferenceable_or_null(8) ptr @malloc(i64 noundef 8) #26
  store ptr %6, ptr %3, align 8, !tbaa !20
  %.not28.i = icmp eq ptr %6, null
  br i1 %.not28.i, label %7, label %8

7:                                                ; preds = %5
  tail call fastcc void @_ZL14yy_fatal_errorPKcPv(ptr noundef nonnull @.str.11) #27
  unreachable

8:                                                ; preds = %5
  store i64 0, ptr %6, align 8
  %9 = getelementptr inbounds nuw i8, ptr %1, i64 32
  store i64 1, ptr %9, align 8, !tbaa !24
  %10 = getelementptr inbounds nuw i8, ptr %1, i64 24
  store i64 0, ptr %10, align 8, !tbaa !21
  br label %.thread

11:                                               ; preds = %2
  %12 = getelementptr inbounds nuw i8, ptr %1, i64 24
  %13 = load i64, ptr %12, align 8, !tbaa !21
  %14 = getelementptr inbounds nuw i8, ptr %1, i64 32
  %15 = load i64, ptr %14, align 8, !tbaa !24
  %16 = add i64 %15, -1
  %.not29.i = icmp ult i64 %13, %16
  br i1 %.not29.i, label %.thread, label %17

17:                                               ; preds = %11
  %18 = add i64 %15, 8
  %19 = shl i64 %18, 3
  %20 = tail call noalias noundef ptr @realloc(ptr noundef nonnull %4, i64 noundef %19) #28
  store ptr %20, ptr %3, align 8, !tbaa !20
  %.not30.i = icmp eq ptr %20, null
  br i1 %.not30.i, label %21, label %22

21:                                               ; preds = %17
  tail call fastcc void @_ZL14yy_fatal_errorPKcPv(ptr noundef nonnull @.str.11) #27
  unreachable

22:                                               ; preds = %17
  %23 = load i64, ptr %14, align 8, !tbaa !24
  %24 = getelementptr inbounds nuw ptr, ptr %20, i64 %23
  tail call void @llvm.memset.p0.i64(ptr noundef nonnull align 8 dereferenceable(64) %24, i8 0, i64 64, i1 false)
  store i64 %18, ptr %14, align 8, !tbaa !24
  br label %.thread

.thread:                                          ; preds = %22, %11, %8
  %25 = phi ptr [ %6, %8 ], [ %4, %11 ], [ %20, %22 ]
  %26 = getelementptr inbounds nuw i8, ptr %1, i64 24
  %27 = load i64, ptr %26, align 8, !tbaa !21
  %28 = getelementptr inbounds nuw ptr, ptr %25, i64 %27
  %29 = load ptr, ptr %28, align 8, !tbaa !22
  %30 = icmp eq ptr %29, %0
  br i1 %30, label %62, label %31

31:                                               ; preds = %.thread
  %32 = icmp eq ptr %29, null
  br i1 %32, label %.critedge, label %33

33:                                               ; preds = %31
  %34 = getelementptr inbounds nuw i8, ptr %1, i64 48
  %35 = load i8, ptr %34, align 8, !tbaa !36
  %36 = getelementptr inbounds nuw i8, ptr %1, i64 64
  %37 = load ptr, ptr %36, align 8, !tbaa !32
  store i8 %35, ptr %37, align 1, !tbaa !35
  %38 = load ptr, ptr %36, align 8, !tbaa !32
  %39 = load ptr, ptr %3, align 8, !tbaa !20
  %40 = load i64, ptr %26, align 8, !tbaa !21
  %41 = getelementptr inbounds nuw ptr, ptr %39, i64 %40
  %42 = load ptr, ptr %41, align 8, !tbaa !22
  %43 = getelementptr inbounds nuw i8, ptr %42, i64 16
  store ptr %38, ptr %43, align 8, !tbaa !31
  %44 = getelementptr inbounds nuw i8, ptr %1, i64 52
  %45 = load i32, ptr %44, align 4, !tbaa !30
  %46 = getelementptr inbounds nuw i8, ptr %42, i64 28
  store i32 %45, ptr %46, align 4, !tbaa !29
  br label %.critedge

.critedge:                                        ; preds = %33, %31
  %47 = phi i64 [ %40, %33 ], [ %27, %31 ]
  %48 = phi ptr [ %39, %33 ], [ %25, %31 ]
  %49 = getelementptr inbounds nuw ptr, ptr %48, i64 %47
  store ptr %0, ptr %49, align 8, !tbaa !22
  %50 = getelementptr inbounds nuw i8, ptr %0, i64 28
  %51 = load i32, ptr %50, align 4, !tbaa !29
  %52 = getelementptr inbounds nuw i8, ptr %1, i64 52
  store i32 %51, ptr %52, align 4, !tbaa !30
  %53 = getelementptr inbounds nuw i8, ptr %0, i64 16
  %54 = load ptr, ptr %53, align 8, !tbaa !31
  %55 = getelementptr inbounds nuw i8, ptr %1, i64 64
  store ptr %54, ptr %55, align 8, !tbaa !32
  %56 = getelementptr inbounds nuw i8, ptr %1, i64 128
  store ptr %54, ptr %56, align 8, !tbaa !33
  %57 = load ptr, ptr %0, align 8, !tbaa !34
  %58 = getelementptr inbounds nuw i8, ptr %1, i64 8
  store ptr %57, ptr %58, align 8, !tbaa !17
  %59 = load i8, ptr %54, align 1, !tbaa !35
  %60 = getelementptr inbounds nuw i8, ptr %1, i64 48
  store i8 %59, ptr %60, align 8, !tbaa !36
  %61 = getelementptr inbounds nuw i8, ptr %1, i64 80
  store i32 1, ptr %61, align 8, !tbaa !58
  br label %62

62:                                               ; preds = %.thread, %.critedge
  ret void
}